target datalayout = "e-m:e-p270:32:32-p271:32:32-p272:64:64-i64:64-i128:128-f80:128-n8:16:32:64-S128"
target triple = "x86_64-pc-linux-gnu"

%"struct.duckdb_miniz::mz_zip_archive" = type { i64, i64, i32, i32, i32, i32, i64, ptr, ptr, ptr, ptr, ptr, ptr, ptr, ptr, ptr }

; Function Attrs: mustprogress nounwind uwtable
define noundef i32 @_ZN12duckdb_miniz21mz_zip_get_last_errorEPNS_14mz_zip_archiveE(ptr noundef %0) #0 {
  %2 = alloca i32, align 4
  %3 = alloca ptr, align 8
  %4 = alloca i32, align 4
  %5 = alloca i32, align 4
  store ptr %0, ptr %3, align 8, !tbaa !19
  call void @llvm.lifetime.start.p0(i64 4, ptr %4) #11
  %6 = load ptr, ptr %3, align 8, !tbaa !19
  %7 = icmp ne ptr %6, null
  br i1 %7, label %9, label %8

8:                                                ; preds = %1
  store i32 24, ptr %2, align 4
  store i32 1, ptr %5, align 4
  br label %16

9:                                                ; preds = %1
  %10 = load ptr, ptr %3, align 8, !tbaa !19
  %11 = getelementptr inbounds nuw %"struct.duckdb_miniz::mz_zip_archive", ptr %10, i32 0, i32 5
  %12 = load i32, ptr %11, align 4, !tbaa !236
  store i32 %12, ptr %4, align 4, !tbaa !242
  %13 = load ptr, ptr %3, align 8, !tbaa !19
  %14 = getelementptr inbounds nuw %"struct.duckdb_miniz::mz_zip_archive", ptr %13, i32 0, i32 5
  store i32 0, ptr %14, align 4, !tbaa !236
  %15 = load i32, ptr %4, align 4, !tbaa !242
  store i32 %15, ptr %2, align 4
  store i32 1, ptr %5, align 4
  br label %16

16:                                               ; preds = %9, %8
  call void @llvm.lifetime.end.p0(i64 4, ptr %4) #11
  %17 = load i32, ptr %2, align 4
  ret i32 %17
}