; Function Attrs: mustprogress nofree norecurse nosync nounwind willreturn memory(argmem: readwrite) uwtable
define noundef i32 @_ZN12duckdb_miniz21mz_zip_get_last_errorEPNS_14mz_zip_archiveE(ptr noundef captures(address_is_null) %0) local_unnamed_addr #21 {
  %.not = icmp eq ptr %0, null
  br i1 %.not, label %5, label %2

2:                                                ; preds = %1
  %3 = getelementptr inbounds nuw i8, ptr %0, i64 28
  %4 = load i32, ptr %3, align 4, !tbaa !213
  store i32 0, ptr %3, align 4, !tbaa !213
  br label %5

5:                                                ; preds = %1, %2
  %.0 = phi i32 [ %4, %2 ], [ 24, %1 ]
  ret i32 %.0
}